target datalayout = "e-m:e-p270:32:32-p271:32:32-p272:64:64-i64:64-i128:128-f80:128-n8:16:32:64-S128"
target triple = "x86_64-pc-linux-gnu"

%struct.x509_purpose_st = type { i32, i32, i32, ptr, ptr, ptr, ptr }

@xptable = internal global ptr null, align 8

; Function Attrs: nounwind uwtable
define hidden ptr @X509_PURPOSE_get0(i32 noundef %0) #0 {
  %2 = alloca ptr, align 8
  %3 = alloca i32, align 4
  store i32 %0, ptr %3, align 4, !tbaa !11
  %4 = load i32, ptr %3, align 4, !tbaa !11
  %5 = icmp slt i32 %4, 0
  br i1 %5, label %6, label %7

6:                                                ; preds = %1
  store ptr null, ptr %2, align 8
  br label %20

7:                                                ; preds = %1
  %8 = load i32, ptr %3, align 4, !tbaa !11
  %9 = icmp slt i32 %8, 9
  br i1 %9, label %10, label %14

10:                                               ; preds = %7
  %11 = load i32, ptr %3, align 4, !tbaa !11
  %12 = sext i32 %11 to i64
  %13 = getelementptr inbounds %struct.x509_purpose_st, ptr @xstandard, i64 %12
  store ptr %13, ptr %2, align 8
  br label %20

14:                                               ; preds = %7
  %15 = load ptr, ptr @xptable, align 8, !tbaa !74
  %16 = load i32, ptr %3, align 4, !tbaa !11
  %17 = sext i32 %16 to i64
  %18 = sub i64 %17, 9
  %19 = call ptr @sk_value(ptr noundef %15, i64 noundef %18)
  store ptr %19, ptr %2, align 8
  br label %20

20:                                               ; preds = %14, %10, %6
  %21 = load ptr, ptr %2, align 8
  ret ptr %21
}