; Function Attrs: nounwind uwtable
define hidden ptr @X509_PURPOSE_get0(i32 noundef %0) local_unnamed_addr #0 {
  %2 = icmp slt i32 %0, 0
  br i1 %2, label %13, label %3

3:                                                ; preds = %1
  %4 = icmp samesign ult i32 %0, 9
  br i1 %4, label %5, label %8

5:                                                ; preds = %3
  %6 = zext nneg i32 %0 to i64
  %7 = getelementptr inbounds nuw %struct.x509_purpose_st, ptr @xstandard, i64 %6
  br label %13

8:                                                ; preds = %3
  %9 = load ptr, ptr @xptable, align 8, !tbaa !27
  %10 = zext nneg i32 %0 to i64
  %11 = add nsw i64 %10, -9
  %12 = tail call ptr @sk_value(ptr noundef %9, i64 noundef %11) #10
  br label %13

13:                                               ; preds = %1, %8, %5
  %.0 = phi ptr [ %7, %5 ], [ %12, %8 ], [ null, %1 ]
  ret ptr %.0
}